; Function Attrs: mustprogress nofree norecurse nosync nounwind willreturn memory(none) uwtable
define hidden noundef ptr @_ZN2cv12cpu_baseline14getConvertFuncEii(i32 noundef %0, i32 noundef %1) local_unnamed_addr #4 {
  %3 = and i32 %1, 7
  %4 = zext nneg i32 %3 to i64
  %5 = and i32 %0, 7
  %6 = zext nneg i32 %5 to i64
  %7 = getelementptr inbounds [8 x [8 x ptr]], ptr @_ZZN2cv12cpu_baseline14getConvertFuncEiiE6cvtTab, i64 0, i64 %4, i64 %6
  %8 = load ptr, ptr %7, align 8
  ret ptr %8
}